; Function Attrs: mustprogress nounwind uwtable
define hidden void @_ZN4llvh8InitLLVMC2ERiRPPKc(ptr noundef nonnull align 8 dereferenceable(152) %this, ptr nocapture noundef nonnull readonly align 4 dereferenceable(4) %Argc, ptr nocapture noundef nonnull readonly align 8 dereferenceable(8) %Argv) unnamed_addr #0 align 2 {
entry:
  %Slabs.i = getelementptr inbounds i8, ptr %this, i64 16
  %add.ptr.i.i.i.i.i.i = getelementptr inbounds i8, ptr %this, i64 32
  tail call void @llvm.memset.p0.i64(ptr noundef nonnull align 8 dereferenceable(16) %this, i8 0, i64 16, i1 false)
  store ptr %add.ptr.i.i.i.i.i.i, ptr %Slabs.i, align 8
  %Size.i.i.i.i.i.i = getelementptr inbounds i8, ptr %this, i64 24
  store i32 0, ptr %Size.i.i.i.i.i.i, align 8
  %Capacity2.i.i.i.i.i.i = getelementptr inbounds i8, ptr %this, i64 28
  store i32 4, ptr %Capacity2.i.i.i.i.i.i, align 4
  %CustomSizedSlabs.i = getelementptr inbounds i8, ptr %this, i64 64
  %add.ptr.i.i.i.i.i1.i = getelementptr inbounds i8, ptr %this, i64 80
  store ptr %add.ptr.i.i.i.i.i1.i, ptr %CustomSizedSlabs.i, align 8
  %Size.i.i.i.i.i2.i = getelementptr inbounds i8, ptr %this, i64 72
  %RedZoneSize.i = getelementptr inbounds i8, ptr %this, i64 88
  tail call void @llvm.memset.p0.i64(ptr noundef nonnull align 8 dereferenceable(16) %Size.i.i.i.i.i2.i, i8 0, i64 16, i1 false)
  store i64 1, ptr %RedZoneSize.i, align 8
  %Args = getelementptr inbounds i8, ptr %this, i64 104
  %add.ptr.i.i.i.i.i = getelementptr inbounds i8, ptr %this, i64 120
  store ptr %add.ptr.i.i.i.i.i, ptr %Args, align 8
  %Size.i.i.i.i.i = getelementptr inbounds i8, ptr %this, i64 112
  store i32 0, ptr %Size.i.i.i.i.i, align 8
  %Capacity2.i.i.i.i.i = getelementptr inbounds i8, ptr %this, i64 116
  store i32 0, ptr %Capacity2.i.i.i.i.i, align 4
  %0 = load i32, ptr %Argc, align 4
  %1 = load ptr, ptr %Argv, align 8
  tail call void @_ZN4llvh21PrettyStackTraceEntryC2Ev(ptr noundef nonnull align 8 dereferenceable(16) %add.ptr.i.i.i.i.i) #6
  store ptr getelementptr inbounds ({ [5 x ptr] }, ptr @_ZTVN4llvh23PrettyStackTraceProgramE, i64 0, i32 0, i64 2), ptr %add.ptr.i.i.i.i.i, align 8
  %ArgC.i = getelementptr inbounds i8, ptr %this, i64 136
  store i32 %0, ptr %ArgC.i, align 8
  %ArgV.i = getelementptr inbounds i8, ptr %this, i64 144
  store ptr %1, ptr %ArgV.i, align 8
  tail call void @_ZN4llvh22EnablePrettyStackTraceEv() #6
  %2 = load ptr, ptr %Argv, align 8
  %3 = load ptr, ptr %2, align 8
  %tobool.i.not = icmp eq ptr %3, null
  br i1 %tobool.i.not, label %_ZN4llvh9StringRefC2EPKc.exit, label %cond.true.i

cond.true.i:                                      ; preds = %entry
  %call.i = tail call i64 @strlen(ptr noundef nonnull dereferenceable(1) %3) #7
  br label %_ZN4llvh9StringRefC2EPKc.exit

_ZN4llvh9StringRefC2EPKc.exit:                    ; preds = %entry, %cond.true.i
  %cond.i = phi i64 [ %call.i, %cond.true.i ], [ 0, %entry ]
  tail call void @_ZN4llvh3sys28PrintStackTraceOnErrorSignalENS_9StringRefEb(ptr %3, i64 %cond.i, i1 noundef zeroext false) #6
  ret void
}